target datalayout = "e-m:e-p270:32:32-p271:32:32-p272:64:64-i64:64-i128:128-f80:128-n8:16:32:64-S128"
target triple = "x86_64-pc-linux-gnu"

; Function Attrs: mustprogress nounwind uwtable
define linkonce_odr noundef double @_ZN3gmx6squareIdEET_S1_(double noundef %0) #0 comdat {
  %2 = alloca double, align 8
  store double %0, ptr %2, align 8
  %3 = load double, ptr %2, align 8
  %4 = load double, ptr %2, align 8
  %5 = fmul double %3, %4
  ret double %5
}

; Function Attrs: mustprogress nounwind uwtable
define linkonce_odr noundef double @_ZN3gmx6power3IdEET_S1_(double noundef %0) #0 comdat {
  %2 = alloca double, align 8
  store double %0, ptr %2, align 8
  %3 = load double, ptr %2, align 8
  %4 = load double, ptr %2, align 8
  %5 = call noundef double @_ZN3gmx6squareIdEET_S1_(double noundef %4)
  %6 = fmul double %3, %5
  ret double %6
}

; Function Attrs: mustprogress uwtable
define linkonce_odr noundef double @_ZN3gmx6power6IdEET_S1_(double noundef %0) #2 comdat {
  %2 = alloca double, align 8
  store double %0, ptr %2, align 8
  %3 = load double, ptr %2, align 8
  %4 = call noundef double @_ZN3gmx6power3IdEET_S1_(double noundef %3)
  %5 = call noundef double @_ZN3gmx6squareIdEET_S1_(double noundef %4)
  ret double %5
}

; Function Attrs: mustprogress uwtable
define noundef double @_Z13v_lj_ewald_lrdd(double noundef %0, double noundef %1) #2 {
  %3 = alloca double, align 8
  %4 = alloca double, align 8
  %5 = alloca double, align 8
  %6 = alloca double, align 8
  %7 = alloca double, align 8
  %8 = alloca double, align 8
  %9 = alloca double, align 8
  %10 = alloca double, align 8
  store double %0, ptr %4, align 8
  store double %1, ptr %5, align 8
  %11 = load double, ptr %5, align 8
  %12 = fcmp oeq double %11, 0.000000e+00
  br i1 %12, label %13, label %17

13:                                               ; preds = %2
  %14 = load double, ptr %4, align 8
  %15 = call noundef double @_ZN3gmx6power6IdEET_S1_(double noundef %14)
  %16 = fdiv double %15, 6.000000e+00
  store double %16, ptr %3, align 8
  br label %41

17:                                               ; preds = %2
  %18 = load double, ptr %4, align 8
  %19 = load double, ptr %5, align 8
  %20 = fmul double %18, %19
  store double %20, ptr %6, align 8
  %21 = load double, ptr %6, align 8
  %22 = load double, ptr %6, align 8
  %23 = fmul double %21, %22
  store double %23, ptr %7, align 8
  %24 = load double, ptr %7, align 8
  %25 = load double, ptr %7, align 8
  %26 = fmul double %24, %25
  store double %26, ptr %8, align 8
  %27 = load double, ptr %5, align 8
  %28 = call noundef double @_ZN3gmx6power6IdEET_S1_(double noundef %27)
  store double %28, ptr %9, align 8
  %29 = load double, ptr %7, align 8
  %30 = fneg double %29
  %31 = call double @exp(double noundef %30) #13
  %32 = load double, ptr %7, align 8
  %33 = fadd double 1.000000e+00, %32
  %34 = load double, ptr %8, align 8
  %35 = call double @llvm.fmuladd.f64(double 5.000000e-01, double %34, double %33)
  %36 = fneg double %31
  %37 = call double @llvm.fmuladd.f64(double %36, double %35, double 1.000000e+00)
  %38 = load double, ptr %9, align 8
  %39 = fdiv double %37, %38
  store double %39, ptr %10, align 8
  %40 = load double, ptr %10, align 8
  store double %40, ptr %3, align 8
  br label %41

41:                                               ; preds = %17, %13
  %42 = load double, ptr %3, align 8
  ret double %42
}