; Function Attrs: mustprogress nofree nounwind willreturn memory(write) uwtable
define noundef double @_Z13v_lj_ewald_lrdd(double noundef %0, double noundef %1) local_unnamed_addr #0 {
  %3 = fcmp oeq double %1, 0.000000e+00
  br i1 %3, label %4, label %9

4:                                                ; preds = %2
  %5 = fmul double %0, %0
  %6 = fmul double %5, %0
  %7 = fmul double %6, %6
  %8 = fdiv double %7, 6.000000e+00
  br label %23

9:                                                ; preds = %2
  %10 = fmul double %0, %1
  %11 = fmul double %10, %10
  %12 = fmul double %11, %11
  %13 = fmul double %1, %1
  %14 = fmul double %13, %1
  %15 = fmul double %14, %14
  %16 = fneg double %11
  %17 = tail call double @exp(double noundef %16) #22
  %18 = fadd double %11, 1.000000e+00
  %19 = tail call double @llvm.fmuladd.f64(double %12, double 5.000000e-01, double %18)
  %20 = fneg double %17
  %21 = tail call double @llvm.fmuladd.f64(double %20, double %19, double 1.000000e+00)
  %22 = fdiv double %21, %15
  br label %23

23:                                               ; preds = %9, %4
  %.0 = phi double [ %8, %4 ], [ %22, %9 ]
  ret double %.0
}